; ModuleID = 'source-C-CXX/41/1894.cpp'
source_filename = "source-C-CXX/41/1894.cpp"
target datalayout = "e-m:e-p270:32:32-p271:32:32-p272:64:64-i64:64-f80:128-n8:16:32:64-S128"
target triple = "x86_64-pc-linux-gnu"

%"class.std::ios_base::Init" = type { i8 }
%"class.std::basic_istream" = type { i32 (...)**, i64, %"class.std::basic_ios" }
%"class.std::basic_ios" = type { %"class.std::ios_base", %"class.std::basic_ostream"*, i8, i8, %"class.std::basic_streambuf"*, %"class.std::ctype"*, %"class.std::num_put"*, %"class.std::num_get"* }
%"class.std::ios_base" = type { i32 (...)**, i64, i64, i32, i32, i32, %"struct.std::ios_base::_Callback_list"*, %"struct.std::ios_base::_Words", [8 x %"struct.std::ios_base::_Words"], i32, %"struct.std::ios_base::_Words"*, %"class.std::locale" }
%"struct.std::ios_base::_Callback_list" = type { %"struct.std::ios_base::_Callback_list"*, void (i32, %"class.std::ios_base"*, i32)*, i32, i32 }
%"struct.std::ios_base::_Words" = type { i8*, i64 }
%"class.std::locale" = type { %"class.std::locale::_Impl"* }
%"class.std::locale::_Impl" = type { i32, %"class.std::locale::facet"**, i64, %"class.std::locale::facet"**, i8** }
%"class.std::locale::facet" = type <{ i32 (...)**, i32, [4 x i8] }>
%"class.std::basic_ostream" = type { i32 (...)**, %"class.std::basic_ios" }
%"class.std::basic_streambuf" = type { i32 (...)**, i8*, i8*, i8*, i8*, i8*, i8*, %"class.std::locale" }
%"class.std::ctype" = type <{ %"class.std::locale::facet.base", [4 x i8], %struct.__locale_struct*, i8, [7 x i8], i32*, i32*, i16*, i8, [256 x i8], [256 x i8], i8, [6 x i8] }>
%"class.std::locale::facet.base" = type <{ i32 (...)**, i32 }>
%struct.__locale_struct = type { [13 x %struct.__locale_data*], i16*, i32*, i32*, [13 x i8*] }
%struct.__locale_data = type opaque
%"class.std::num_put" = type { %"class.std::locale::facet.base", [4 x i8] }
%"class.std::num_get" = type { %"class.std::locale::facet.base", [4 x i8] }

@_ZStL8__ioinit = internal global %"class.std::ios_base::Init" zeroinitializer, align 1
@__dso_handle = external hidden global i8
@_ZSt3cin = external global %"class.std::basic_istream", align 8
@_ZSt4cout = external global %"class.std::basic_ostream", align 8
@llvm.global_ctors = appending global [1 x { i32, void ()*, i8* }] [{ i32, void ()*, i8* } { i32 65535, void ()* @_GLOBAL__sub_I_1894.cpp, i8* null }]

declare void @_ZNSt8ios_base4InitC1Ev(%"class.std::ios_base::Init"* nonnull align 1 dereferenceable(1)) unnamed_addr #0

; Function Attrs: nounwind
declare void @_ZNSt8ios_base4InitD1Ev(%"class.std::ios_base::Init"* nonnull align 1 dereferenceable(1)) unnamed_addr #1

; Function Attrs: nofree nounwind
declare i32 @__cxa_atexit(void (i8*)*, i8*, i8*) local_unnamed_addr #2

; Function Attrs: mustprogress norecurse sspstrong uwtable
define dso_local i32 @main() local_unnamed_addr #3 {
  %1 = alloca i8, align 1
  %2 = alloca [100000 x i32], align 16
  %3 = alloca i32, align 4
  %4 = alloca i32, align 4
  %5 = bitcast [100000 x i32]* %2 to i8*
  call void @llvm.lifetime.start.p0i8(i64 400000, i8* nonnull %5) #7
  call void @llvm.memset.p0i8.i64(i8* noundef nonnull align 16 dereferenceable(400000) %5, i8 0, i64 400000, i1 false)
  %6 = bitcast i32* %3 to i8*
  call void @llvm.lifetime.start.p0i8(i64 4, i8* nonnull %6) #7
  %7 = call nonnull align 8 dereferenceable(16) %"class.std::basic_istream"* @_ZNSirsERi(%"class.std::basic_istream"* nonnull align 8 dereferenceable(16) @_ZSt3cin, i32* nonnull align 4 dereferenceable(4) %3)
  %8 = load i32, i32* %3, align 4, !tbaa !5
  %9 = icmp sgt i32 %8, 0
  br i1 %9, label %16, label %10

10:                                               ; preds = %16, %0
  %11 = bitcast i32* %4 to i8*
  call void @llvm.lifetime.start.p0i8(i64 4, i8* nonnull %11) #7
  %12 = call nonnull align 8 dereferenceable(16) %"class.std::basic_istream"* @_ZNSirsERi(%"class.std::basic_istream"* nonnull align 8 dereferenceable(16) @_ZSt3cin, i32* nonnull align 4 dereferenceable(4) %4)
  %13 = load i32, i32* %4, align 4
  %14 = load i32, i32* %3, align 4, !tbaa !5
  %15 = icmp sgt i32 %14, 0
  br i1 %15, label %24, label %28

16:                                               ; preds = %0, %16
  %17 = phi i64 [ %20, %16 ], [ 0, %0 ]
  %18 = getelementptr inbounds [100000 x i32], [100000 x i32]* %2, i64 0, i64 %17
  %19 = call nonnull align 8 dereferenceable(16) %"class.std::basic_istream"* @_ZNSirsERi(%"class.std::basic_istream"* nonnull align 8 dereferenceable(16) @_ZSt3cin, i32* nonnull align 4 dereferenceable(4) %18)
  %20 = add nuw nsw i64 %17, 1
  %21 = load i32, i32* %3, align 4, !tbaa !5
  %22 = sext i32 %21 to i64
  %23 = icmp slt i64 %20, %22
  br i1 %23, label %16, label %10, !llvm.loop !9

24:                                               ; preds = %10, %127
  %25 = phi i32 [ %129, %127 ], [ %14, %10 ]
  %26 = phi i64 [ %130, %127 ], [ 0, %10 ]
  %27 = getelementptr inbounds [100000 x i32], [100000 x i32]* %2, i64 0, i64 %26
  br label %34

28:                                               ; preds = %127, %10
  %29 = getelementptr inbounds [100000 x i32], [100000 x i32]* %2, i64 0, i64 0
  %30 = load i32, i32* %29, align 16, !tbaa !5
  %31 = call nonnull align 8 dereferenceable(8) %"class.std::basic_ostream"* @_ZNSolsEi(%"class.std::basic_ostream"* nonnull align 8 dereferenceable(8) @_ZSt4cout, i32 %30)
  %32 = load i32, i32* %3, align 4, !tbaa !5
  %33 = icmp sgt i32 %32, 1
  br i1 %33, label %133, label %132

34:                                               ; preds = %24, %118
  %35 = phi i32 [ 0, %24 ], [ %119, %118 ]
  %36 = phi i32 [ %25, %24 ], [ %53, %118 ]
  %37 = xor i32 %35, -1
  %38 = add i32 %25, %37
  %39 = zext i32 %38 to i64
  %40 = sub nsw i64 %39, %26
  %41 = add i64 %40, -8
  %42 = lshr i64 %41, 3
  %43 = add nuw nsw i64 %42, 1
  %44 = xor i32 %35, -1
  %45 = add i32 %25, %44
  %46 = zext i32 %45 to i64
  %47 = sub nsw i64 %46, %26
  %48 = load i32, i32* %27, align 4, !tbaa !5
  %49 = icmp eq i32 %48, %13
  br i1 %49, label %52, label %50

50:                                               ; preds = %34
  %51 = sext i32 %36 to i64
  br label %127

52:                                               ; preds = %34
  %53 = add i32 %36, -1
  %54 = sext i32 %53 to i64
  %55 = icmp slt i64 %26, %54
  br i1 %55, label %57, label %56

56:                                               ; preds = %52
  store i32 %53, i32* %3, align 4, !tbaa !5
  br label %127

57:                                               ; preds = %52
  %58 = zext i32 %53 to i64
  %59 = icmp ult i64 %47, 8
  br i1 %59, label %116, label %60

60:                                               ; preds = %57
  %61 = and i64 %47, -8
  %62 = add i64 %26, %61
  %63 = and i64 %43, 1
  %64 = icmp ult i64 %41, 8
  br i1 %64, label %98, label %65

65:                                               ; preds = %60
  %66 = and i64 %43, 4611686018427387902
  br label %67

67:                                               ; preds = %67, %65
  %68 = phi i64 [ 0, %65 ], [ %95, %67 ]
  %69 = phi i64 [ %66, %65 ], [ %96, %67 ]
  %70 = add i64 %26, %68
  %71 = add nuw nsw i64 %70, 1
  %72 = getelementptr inbounds [100000 x i32], [100000 x i32]* %2, i64 0, i64 %71
  %73 = bitcast i32* %72 to <4 x i32>*
  %74 = load <4 x i32>, <4 x i32>* %73, align 4, !tbaa !5
  %75 = getelementptr inbounds i32, i32* %72, i64 4
  %76 = bitcast i32* %75 to <4 x i32>*
  %77 = load <4 x i32>, <4 x i32>* %76, align 4, !tbaa !5
  %78 = getelementptr inbounds [100000 x i32], [100000 x i32]* %2, i64 0, i64 %70
  %79 = bitcast i32* %78 to <4 x i32>*
  store <4 x i32> %74, <4 x i32>* %79, align 4, !tbaa !5
  %80 = getelementptr inbounds i32, i32* %78, i64 4
  %81 = bitcast i32* %80 to <4 x i32>*
  store <4 x i32> %77, <4 x i32>* %81, align 4, !tbaa !5
  %82 = or i64 %68, 8
  %83 = add i64 %26, %82
  %84 = add nuw nsw i64 %83, 1
  %85 = getelementptr inbounds [100000 x i32], [100000 x i32]* %2, i64 0, i64 %84
  %86 = bitcast i32* %85 to <4 x i32>*
  %87 = load <4 x i32>, <4 x i32>* %86, align 4, !tbaa !5
  %88 = getelementptr inbounds i32, i32* %85, i64 4
  %89 = bitcast i32* %88 to <4 x i32>*
  %90 = load <4 x i32>, <4 x i32>* %89, align 4, !tbaa !5
  %91 = getelementptr inbounds [100000 x i32], [100000 x i32]* %2, i64 0, i64 %83
  %92 = bitcast i32* %91 to <4 x i32>*
  store <4 x i32> %87, <4 x i32>* %92, align 4, !tbaa !5
  %93 = getelementptr inbounds i32, i32* %91, i64 4
  %94 = bitcast i32* %93 to <4 x i32>*
  store <4 x i32> %90, <4 x i32>* %94, align 4, !tbaa !5
  %95 = add nuw i64 %68, 16
  %96 = add i64 %69, -2
  %97 = icmp eq i64 %96, 0
  br i1 %97, label %98, label %67, !llvm.loop !11

98:                                               ; preds = %67, %60
  %99 = phi i64 [ 0, %60 ], [ %95, %67 ]
  %100 = icmp eq i64 %63, 0
  br i1 %100, label %114, label %101

101:                                              ; preds = %98
  %102 = add i64 %26, %99
  %103 = add nuw nsw i64 %102, 1
  %104 = getelementptr inbounds [100000 x i32], [100000 x i32]* %2, i64 0, i64 %103
  %105 = bitcast i32* %104 to <4 x i32>*
  %106 = load <4 x i32>, <4 x i32>* %105, align 4, !tbaa !5
  %107 = getelementptr inbounds i32, i32* %104, i64 4
  %108 = bitcast i32* %107 to <4 x i32>*
  %109 = load <4 x i32>, <4 x i32>* %108, align 4, !tbaa !5
  %110 = getelementptr inbounds [100000 x i32], [100000 x i32]* %2, i64 0, i64 %102
  %111 = bitcast i32* %110 to <4 x i32>*
  store <4 x i32> %106, <4 x i32>* %111, align 4, !tbaa !5
  %112 = getelementptr inbounds i32, i32* %110, i64 4
  %113 = bitcast i32* %112 to <4 x i32>*
  store <4 x i32> %109, <4 x i32>* %113, align 4, !tbaa !5
  br label %114

114:                                              ; preds = %98, %101
  %115 = icmp eq i64 %47, %61
  br i1 %115, label %118, label %116

116:                                              ; preds = %57, %114
  %117 = phi i64 [ %26, %57 ], [ %62, %114 ]
  br label %120

118:                                              ; preds = %120, %114
  store i32 %53, i32* %3, align 4, !tbaa !5
  %119 = add i32 %35, 1
  br i1 %55, label %34, label %127, !llvm.loop !13

120:                                              ; preds = %116, %120
  %121 = phi i64 [ %122, %120 ], [ %117, %116 ]
  %122 = add nuw nsw i64 %121, 1
  %123 = getelementptr inbounds [100000 x i32], [100000 x i32]* %2, i64 0, i64 %122
  %124 = load i32, i32* %123, align 4, !tbaa !5
  %125 = getelementptr inbounds [100000 x i32], [100000 x i32]* %2, i64 0, i64 %121
  store i32 %124, i32* %125, align 4, !tbaa !5
  %126 = icmp eq i64 %122, %58
  br i1 %126, label %118, label %120, !llvm.loop !14

127:                                              ; preds = %118, %56, %50
  %128 = phi i64 [ %51, %50 ], [ %54, %56 ], [ %54, %118 ]
  %129 = phi i32 [ %36, %50 ], [ %53, %56 ], [ %53, %118 ]
  %130 = add nuw nsw i64 %26, 1
  %131 = icmp slt i64 %130, %128
  br i1 %131, label %24, label %28, !llvm.loop !16

132:                                              ; preds = %133, %28
  call void @llvm.lifetime.end.p0i8(i64 4, i8* nonnull %11) #7
  call void @llvm.lifetime.end.p0i8(i64 4, i8* nonnull %6) #7
  call void @llvm.lifetime.end.p0i8(i64 400000, i8* nonnull %5) #7
  ret i32 0

133:                                              ; preds = %28, %133
  %134 = phi i64 [ %139, %133 ], [ 1, %28 ]
  call void @llvm.lifetime.start.p0i8(i64 1, i8* nonnull %1)
  store i8 32, i8* %1, align 1, !tbaa !17
  %135 = call nonnull align 8 dereferenceable(8) %"class.std::basic_ostream"* @_ZSt16__ostream_insertIcSt11char_traitsIcEERSt13basic_ostreamIT_T0_ES6_PKS3_l(%"class.std::basic_ostream"* nonnull align 8 dereferenceable(8) @_ZSt4cout, i8* nonnull %1, i64 1)
  call void @llvm.lifetime.end.p0i8(i64 1, i8* nonnull %1)
  %136 = getelementptr inbounds [100000 x i32], [100000 x i32]* %2, i64 0, i64 %134
  %137 = load i32, i32* %136, align 4, !tbaa !5
  %138 = call nonnull align 8 dereferenceable(8) %"class.std::basic_ostream"* @_ZNSolsEi(%"class.std::basic_ostream"* nonnull align 8 dereferenceable(8) %135, i32 %137)
  %139 = add nuw nsw i64 %134, 1
  %140 = load i32, i32* %3, align 4, !tbaa !5
  %141 = sext i32 %140 to i64
  %142 = icmp slt i64 %139, %141
  br i1 %142, label %133, label %132, !llvm.loop !18
}

; Function Attrs: argmemonly mustprogress nofree nosync nounwind willreturn
declare void @llvm.lifetime.start.p0i8(i64 immarg, i8* nocapture) #4

; Function Attrs: argmemonly mustprogress nofree nounwind willreturn writeonly
declare void @llvm.memset.p0i8.i64(i8* nocapture writeonly, i8, i64, i1 immarg) #5

declare nonnull align 8 dereferenceable(16) %"class.std::basic_istream"* @_ZNSirsERi(%"class.std::basic_istream"* nonnull align 8 dereferenceable(16), i32* nonnull align 4 dereferenceable(4)) local_unnamed_addr #0

; Function Attrs: argmemonly mustprogress nofree nosync nounwind willreturn
declare void @llvm.lifetime.end.p0i8(i64 immarg, i8* nocapture) #4

declare nonnull align 8 dereferenceable(8) %"class.std::basic_ostream"* @_ZNSolsEi(%"class.std::basic_ostream"* nonnull align 8 dereferenceable(8), i32) local_unnamed_addr #0

declare nonnull align 8 dereferenceable(8) %"class.std::basic_ostream"* @_ZSt16__ostream_insertIcSt11char_traitsIcEERSt13basic_ostreamIT_T0_ES6_PKS3_l(%"class.std::basic_ostream"* nonnull align 8 dereferenceable(8), i8*, i64) local_unnamed_addr #0

; Function Attrs: sspstrong uwtable
define internal void @_GLOBAL__sub_I_1894.cpp() #6 section ".text.startup" {
  tail call void @_ZNSt8ios_base4InitC1Ev(%"class.std::ios_base::Init"* nonnull align 1 dereferenceable(1) @_ZStL8__ioinit)
  %1 = tail call i32 @__cxa_atexit(void (i8*)* bitcast (void (%"class.std::ios_base::Init"*)* @_ZNSt8ios_base4InitD1Ev to void (i8*)*), i8* getelementptr inbounds (%"class.std::ios_base::Init", %"class.std::ios_base::Init"* @_ZStL8__ioinit, i64 0, i32 0), i8* nonnull @__dso_handle) #7
  ret void
}


!llvm.module.flags = !{!0, !1, !2, !3}
!llvm.ident = !{!4}

!0 = !{i32 1, !"wchar_size", i32 4}
!1 = !{i32 7, !"PIC Level", i32 2}
!2 = !{i32 7, !"PIE Level", i32 2}
!3 = !{i32 7, !"uwtable", i32 1}
!4 = !{!"clang version 13.0.0"}
!5 = !{!6, !6, i64 0}
!6 = !{!"int", !7, i64 0}
!7 = !{!"omnipotent char", !8, i64 0}
!8 = !{!"Simple C++ TBAA"}
!9 = distinct !{!9, !10}
!10 = !{!"llvm.loop.mustprogress"}
!11 = distinct !{!11, !10, !12}
!12 = !{!"llvm.loop.isvectorized", i32 1}
!13 = distinct !{!13, !10}
!14 = distinct !{!14, !10, !15, !12}
!15 = !{!"llvm.loop.unroll.runtime.disable"}
!16 = distinct !{!16, !10}
!17 = !{!7, !7, i64 0}
!18 = distinct !{!18, !10}
